target datalayout = "e-m:e-p270:32:32-p271:32:32-p272:64:64-i64:64-i128:128-f80:128-n8:16:32:64-S128"
target triple = "x86_64-pc-linux-gnu"

@.str = private unnamed_addr constant [33 x i8] c"../openssl/crypto/rsa/rsa_oaep.c\00", align 1
@__func__.ossl_rsa_padding_add_PKCS1_OAEP_mgf1_ex = private unnamed_addr constant [40 x i8] c"ossl_rsa_padding_add_PKCS1_OAEP_mgf1_ex\00", align 1

; Function Attrs: nounwind uwtable
define i32 @ossl_rsa_padding_add_PKCS1_OAEP_mgf1_ex(ptr noundef %0, ptr noundef %1, i32 noundef %2, ptr noundef %3, i32 noundef %4, ptr noundef %5, i32 noundef %6, ptr noundef %7, ptr noundef %8) #0 {
  %10 = alloca i32, align 4
  %11 = alloca ptr, align 8
  %12 = alloca ptr, align 8
  %13 = alloca i32, align 4
  %14 = alloca ptr, align 8
  %15 = alloca i32, align 4
  %16 = alloca ptr, align 8
  %17 = alloca i32, align 4
  %18 = alloca ptr, align 8
  %19 = alloca ptr, align 8
  %20 = alloca i32, align 4
  %21 = alloca i32, align 4
  %22 = alloca i32, align 4
  %23 = alloca ptr, align 8
  %24 = alloca ptr, align 8
  %25 = alloca ptr, align 8
  %26 = alloca [64 x i8], align 16
  %27 = alloca i32, align 4
  %28 = alloca i32, align 4
  %29 = alloca i32, align 4
  store ptr %0, ptr %11, align 8, !tbaa !10
  store ptr %1, ptr %12, align 8, !tbaa !3
  store i32 %2, ptr %13, align 4, !tbaa !8
  store ptr %3, ptr %14, align 8, !tbaa !3
  store i32 %4, ptr %15, align 4, !tbaa !8
  store ptr %5, ptr %16, align 8, !tbaa !3
  store i32 %6, ptr %17, align 4, !tbaa !8
  store ptr %7, ptr %18, align 8, !tbaa !12
  store ptr %8, ptr %19, align 8, !tbaa !12
  call void @llvm.lifetime.start.p0(i64 4, ptr %20) #6
  store i32 0, ptr %20, align 4, !tbaa !8
  call void @llvm.lifetime.start.p0(i64 4, ptr %21) #6
  call void @llvm.lifetime.start.p0(i64 4, ptr %22) #6
  %30 = load i32, ptr %13, align 4, !tbaa !8
  %31 = sub nsw i32 %30, 1
  store i32 %31, ptr %22, align 4, !tbaa !8
  call void @llvm.lifetime.start.p0(i64 8, ptr %23) #6
  call void @llvm.lifetime.start.p0(i64 8, ptr %24) #6
  call void @llvm.lifetime.start.p0(i64 8, ptr %25) #6
  store ptr null, ptr %25, align 8, !tbaa !3
  call void @llvm.lifetime.start.p0(i64 64, ptr %26) #6
  call void @llvm.lifetime.start.p0(i64 4, ptr %27) #6
  call void @llvm.lifetime.start.p0(i64 4, ptr %28) #6
  store i32 0, ptr %28, align 4, !tbaa !8
  %32 = load ptr, ptr %18, align 8, !tbaa !12
  %33 = icmp eq ptr %32, null
  br i1 %33, label %34, label %36

34:                                               ; preds = %9
  %35 = call ptr @EVP_sha1()
  store ptr %35, ptr %18, align 8, !tbaa !12
  br label %36

36:                                               ; preds = %34, %9
  %37 = load ptr, ptr %19, align 8, !tbaa !12
  %38 = icmp eq ptr %37, null
  br i1 %38, label %39, label %41

39:                                               ; preds = %36
  %40 = load ptr, ptr %18, align 8, !tbaa !12
  store ptr %40, ptr %19, align 8, !tbaa !12
  br label %41

41:                                               ; preds = %39, %36
  %42 = load ptr, ptr %18, align 8, !tbaa !12
  %43 = call i32 @EVP_MD_get_size(ptr noundef %42)
  store i32 %43, ptr %27, align 4, !tbaa !8
  %44 = load i32, ptr %27, align 4, !tbaa !8
  %45 = icmp sle i32 %44, 0
  br i1 %45, label %46, label %47

46:                                               ; preds = %41
  call void @ERR_new()
  call void @ERR_set_debug(ptr noundef @.str, i32 noundef 93, ptr noundef @__func__.ossl_rsa_padding_add_PKCS1_OAEP_mgf1_ex)
  call void (i32, i32, ptr, ...) @ERR_set_error(i32 noundef 4, i32 noundef 181, ptr noundef null)
  store i32 0, ptr %10, align 4
  store i32 1, ptr %29, align 4
  br label %209

47:                                               ; preds = %41
  %48 = load i32, ptr %15, align 4, !tbaa !8
  %49 = load i32, ptr %22, align 4, !tbaa !8
  %50 = load i32, ptr %27, align 4, !tbaa !8
  %51 = mul nsw i32 2, %50
  %52 = sub nsw i32 %49, %51
  %53 = sub nsw i32 %52, 1
  %54 = icmp sgt i32 %48, %53
  br i1 %54, label %55, label %56

55:                                               ; preds = %47
  call void @ERR_new()
  call void @ERR_set_debug(ptr noundef @.str, i32 noundef 99, ptr noundef @__func__.ossl_rsa_padding_add_PKCS1_OAEP_mgf1_ex)
  call void (i32, i32, ptr, ...) @ERR_set_error(i32 noundef 4, i32 noundef 110, ptr noundef null)
  store i32 0, ptr %10, align 4
  store i32 1, ptr %29, align 4
  br label %209

56:                                               ; preds = %47
  %57 = load i32, ptr %22, align 4, !tbaa !8
  %58 = load i32, ptr %27, align 4, !tbaa !8
  %59 = mul nsw i32 2, %58
  %60 = add nsw i32 %59, 1
  %61 = icmp slt i32 %57, %60
  br i1 %61, label %62, label %63

62:                                               ; preds = %56
  call void @ERR_new()
  call void @ERR_set_debug(ptr noundef @.str, i32 noundef 104, ptr noundef @__func__.ossl_rsa_padding_add_PKCS1_OAEP_mgf1_ex)
  call void (i32, i32, ptr, ...) @ERR_set_error(i32 noundef 4, i32 noundef 120, ptr noundef null)
  store i32 0, ptr %10, align 4
  store i32 1, ptr %29, align 4
  br label %209

63:                                               ; preds = %56
  %64 = load ptr, ptr %12, align 8, !tbaa !3
  %65 = getelementptr inbounds i8, ptr %64, i64 0
  store i8 0, ptr %65, align 1, !tbaa !14
  %66 = load ptr, ptr %12, align 8, !tbaa !3
  %67 = getelementptr inbounds i8, ptr %66, i64 1
  store ptr %67, ptr %24, align 8, !tbaa !3
  %68 = load ptr, ptr %12, align 8, !tbaa !3
  %69 = load i32, ptr %27, align 4, !tbaa !8
  %70 = sext i32 %69 to i64
  %71 = getelementptr inbounds i8, ptr %68, i64 %70
  %72 = getelementptr inbounds i8, ptr %71, i64 1
  store ptr %72, ptr %23, align 8, !tbaa !3
  %73 = load ptr, ptr %16, align 8, !tbaa !3
  %74 = load i32, ptr %17, align 4, !tbaa !8
  %75 = sext i32 %74 to i64
  %76 = load ptr, ptr %23, align 8, !tbaa !3
  %77 = load ptr, ptr %18, align 8, !tbaa !12
  %78 = call i32 @EVP_Digest(ptr noundef %73, i64 noundef %75, ptr noundef %76, ptr noundef null, ptr noundef %77, ptr noundef null)
  %79 = icmp ne i32 %78, 0
  br i1 %79, label %81, label %80

80:                                               ; preds = %63
  br label %203

81:                                               ; preds = %63
  %82 = load ptr, ptr %23, align 8, !tbaa !3
  %83 = load i32, ptr %27, align 4, !tbaa !8
  %84 = sext i32 %83 to i64
  %85 = getelementptr inbounds i8, ptr %82, i64 %84
  %86 = load i32, ptr %22, align 4, !tbaa !8
  %87 = load i32, ptr %15, align 4, !tbaa !8
  %88 = sub nsw i32 %86, %87
  %89 = load i32, ptr %27, align 4, !tbaa !8
  %90 = mul nsw i32 2, %89
  %91 = sub nsw i32 %88, %90
  %92 = sub nsw i32 %91, 1
  %93 = sext i32 %92 to i64
  call void @llvm.memset.p0.i64(ptr align 1 %85, i8 0, i64 %93, i1 false)
  %94 = load ptr, ptr %23, align 8, !tbaa !3
  %95 = load i32, ptr %22, align 4, !tbaa !8
  %96 = load i32, ptr %15, align 4, !tbaa !8
  %97 = sub nsw i32 %95, %96
  %98 = load i32, ptr %27, align 4, !tbaa !8
  %99 = sub nsw i32 %97, %98
  %100 = sub nsw i32 %99, 1
  %101 = sext i32 %100 to i64
  %102 = getelementptr inbounds i8, ptr %94, i64 %101
  store i8 1, ptr %102, align 1, !tbaa !14
  %103 = load ptr, ptr %23, align 8, !tbaa !3
  %104 = load i32, ptr %22, align 4, !tbaa !8
  %105 = sext i32 %104 to i64
  %106 = getelementptr inbounds i8, ptr %103, i64 %105
  %107 = load i32, ptr %15, align 4, !tbaa !8
  %108 = sext i32 %107 to i64
  %109 = sub i64 0, %108
  %110 = getelementptr inbounds i8, ptr %106, i64 %109
  %111 = load i32, ptr %27, align 4, !tbaa !8
  %112 = sext i32 %111 to i64
  %113 = sub i64 0, %112
  %114 = getelementptr inbounds i8, ptr %110, i64 %113
  %115 = load ptr, ptr %14, align 8, !tbaa !3
  %116 = load i32, ptr %15, align 4, !tbaa !8
  %117 = zext i32 %116 to i64
  call void @llvm.memcpy.p0.p0.i64(ptr align 1 %114, ptr align 1 %115, i64 %117, i1 false)
  %118 = load ptr, ptr %11, align 8, !tbaa !10
  %119 = load ptr, ptr %24, align 8, !tbaa !3
  %120 = load i32, ptr %27, align 4, !tbaa !8
  %121 = sext i32 %120 to i64
  %122 = call i32 @RAND_bytes_ex(ptr noundef %118, ptr noundef %119, i64 noundef %121, i32 noundef 0)
  %123 = icmp sle i32 %122, 0
  br i1 %123, label %124, label %125

124:                                              ; preds = %81
  br label %203

125:                                              ; preds = %81
  %126 = load i32, ptr %22, align 4, !tbaa !8
  %127 = load i32, ptr %27, align 4, !tbaa !8
  %128 = sub nsw i32 %126, %127
  store i32 %128, ptr %28, align 4, !tbaa !8
  %129 = load i32, ptr %28, align 4, !tbaa !8
  %130 = sext i32 %129 to i64
  %131 = call noalias ptr @CRYPTO_malloc(i64 noundef %130, ptr noundef @.str, i32 noundef 126)
  store ptr %131, ptr %25, align 8, !tbaa !3
  %132 = load ptr, ptr %25, align 8, !tbaa !3
  %133 = icmp eq ptr %132, null
  br i1 %133, label %134, label %135

134:                                              ; preds = %125
  br label %203

135:                                              ; preds = %125
  %136 = load ptr, ptr %25, align 8, !tbaa !3
  %137 = load i32, ptr %28, align 4, !tbaa !8
  %138 = sext i32 %137 to i64
  %139 = load ptr, ptr %24, align 8, !tbaa !3
  %140 = load i32, ptr %27, align 4, !tbaa !8
  %141 = sext i32 %140 to i64
  %142 = load ptr, ptr %19, align 8, !tbaa !12
  %143 = call i32 @PKCS1_MGF1(ptr noundef %136, i64 noundef %138, ptr noundef %139, i64 noundef %141, ptr noundef %142)
  %144 = icmp slt i32 %143, 0
  br i1 %144, label %145, label %146

145:                                              ; preds = %135
  br label %203

146:                                              ; preds = %135
  store i32 0, ptr %21, align 4, !tbaa !8
  br label %147

147:                                              ; preds = %166, %146
  %148 = load i32, ptr %21, align 4, !tbaa !8
  %149 = load i32, ptr %28, align 4, !tbaa !8
  %150 = icmp slt i32 %148, %149
  br i1 %150, label %151, label %169

151:                                              ; preds = %147
  %152 = load ptr, ptr %25, align 8, !tbaa !3
  %153 = load i32, ptr %21, align 4, !tbaa !8
  %154 = sext i32 %153 to i64
  %155 = getelementptr inbounds i8, ptr %152, i64 %154
  %156 = load i8, ptr %155, align 1, !tbaa !14
  %157 = zext i8 %156 to i32
  %158 = load ptr, ptr %23, align 8, !tbaa !3
  %159 = load i32, ptr %21, align 4, !tbaa !8
  %160 = sext i32 %159 to i64
  %161 = getelementptr inbounds i8, ptr %158, i64 %160
  %162 = load i8, ptr %161, align 1, !tbaa !14
  %163 = zext i8 %162 to i32
  %164 = xor i32 %163, %157
  %165 = trunc i32 %164 to i8
  store i8 %165, ptr %161, align 1, !tbaa !14
  br label %166

166:                                              ; preds = %151
  %167 = load i32, ptr %21, align 4, !tbaa !8
  %168 = add nsw i32 %167, 1
  store i32 %168, ptr %21, align 4, !tbaa !8
  br label %147, !llvm.loop !15

169:                                              ; preds = %147
  %170 = getelementptr inbounds [64 x i8], ptr %26, i64 0, i64 0
  %171 = load i32, ptr %27, align 4, !tbaa !8
  %172 = sext i32 %171 to i64
  %173 = load ptr, ptr %23, align 8, !tbaa !3
  %174 = load i32, ptr %28, align 4, !tbaa !8
  %175 = sext i32 %174 to i64
  %176 = load ptr, ptr %19, align 8, !tbaa !12
  %177 = call i32 @PKCS1_MGF1(ptr noundef %170, i64 noundef %172, ptr noundef %173, i64 noundef %175, ptr noundef %176)
  %178 = icmp slt i32 %177, 0
  br i1 %178, label %179, label %180

179:                                              ; preds = %169
  br label %203

180:                                              ; preds = %169
  store i32 0, ptr %21, align 4, !tbaa !8
  br label %181

181:                                              ; preds = %199, %180
  %182 = load i32, ptr %21, align 4, !tbaa !8
  %183 = load i32, ptr %27, align 4, !tbaa !8
  %184 = icmp slt i32 %182, %183
  br i1 %184, label %185, label %202

185:                                              ; preds = %181
  %186 = load i32, ptr %21, align 4, !tbaa !8
  %187 = sext i32 %186 to i64
  %188 = getelementptr inbounds [64 x i8], ptr %26, i64 0, i64 %187
  %189 = load i8, ptr %188, align 1, !tbaa !14
  %190 = zext i8 %189 to i32
  %191 = load ptr, ptr %24, align 8, !tbaa !3
  %192 = load i32, ptr %21, align 4, !tbaa !8
  %193 = sext i32 %192 to i64
  %194 = getelementptr inbounds i8, ptr %191, i64 %193
  %195 = load i8, ptr %194, align 1, !tbaa !14
  %196 = zext i8 %195 to i32
  %197 = xor i32 %196, %190
  %198 = trunc i32 %197 to i8
  store i8 %198, ptr %194, align 1, !tbaa !14
  br label %199

199:                                              ; preds = %185
  %200 = load i32, ptr %21, align 4, !tbaa !8
  %201 = add nsw i32 %200, 1
  store i32 %201, ptr %21, align 4, !tbaa !8
  br label %181, !llvm.loop !17

202:                                              ; preds = %181
  store i32 1, ptr %20, align 4, !tbaa !8
  br label %203

203:                                              ; preds = %202, %179, %145, %134, %124, %80
  %204 = getelementptr inbounds [64 x i8], ptr %26, i64 0, i64 0
  call void @OPENSSL_cleanse(ptr noundef %204, i64 noundef 64)
  %205 = load ptr, ptr %25, align 8, !tbaa !3
  %206 = load i32, ptr %28, align 4, !tbaa !8
  %207 = sext i32 %206 to i64
  call void @CRYPTO_clear_free(ptr noundef %205, i64 noundef %207, ptr noundef @.str, i32 noundef 147)
  %208 = load i32, ptr %20, align 4, !tbaa !8
  store i32 %208, ptr %10, align 4
  store i32 1, ptr %29, align 4
  br label %209

209:                                              ; preds = %203, %62, %55, %46
  call void @llvm.lifetime.end.p0(i64 4, ptr %28) #6
  call void @llvm.lifetime.end.p0(i64 4, ptr %27) #6
  call void @llvm.lifetime.end.p0(i64 64, ptr %26) #6
  call void @llvm.lifetime.end.p0(i64 8, ptr %25) #6
  call void @llvm.lifetime.end.p0(i64 8, ptr %24) #6
  call void @llvm.lifetime.end.p0(i64 8, ptr %23) #6
  call void @llvm.lifetime.end.p0(i64 4, ptr %22) #6
  call void @llvm.lifetime.end.p0(i64 4, ptr %21) #6
  call void @llvm.lifetime.end.p0(i64 4, ptr %20) #6
  %210 = load i32, ptr %10, align 4
  ret i32 %210
}