; Function Attrs: nounwind uwtable
define range(i32 0, 2) i32 @ossl_rsa_padding_add_PKCS1_OAEP_mgf1_ex(ptr noundef %0, ptr noundef %1, i32 noundef %2, ptr noundef readonly captures(none) %3, i32 noundef %4, ptr noundef %5, i32 noundef %6, ptr noundef %7, ptr noundef %8) local_unnamed_addr #0 {
  %10 = alloca [64 x i8], align 16
  %11 = add nsw i32 %2, -1
  call void @llvm.lifetime.start.p0(i64 64, ptr nonnull %10) #6
  %12 = icmp eq ptr %7, null
  br i1 %12, label %13, label %15

13:                                               ; preds = %9
  %14 = tail call ptr @EVP_sha1() #6
  br label %15

15:                                               ; preds = %13, %9
  %.068 = phi ptr [ %14, %13 ], [ %7, %9 ]
  %16 = icmp eq ptr %8, null
  %spec.select = select i1 %16, ptr %.068, ptr %8
  %17 = tail call i32 @EVP_MD_get_size(ptr noundef %.068) #6
  %18 = icmp slt i32 %17, 1
  br i1 %18, label %19, label %20

19:                                               ; preds = %15
  tail call void @ERR_new() #6
  tail call void @ERR_set_debug(ptr noundef nonnull @.str, i32 noundef 93, ptr noundef nonnull @__func__.ossl_rsa_padding_add_PKCS1_OAEP_mgf1_ex) #6
  tail call void (i32, i32, ptr, ...) @ERR_set_error(i32 noundef 4, i32 noundef 181, ptr noundef null) #6
  br label %77

20:                                               ; preds = %15
  %21 = shl nuw nsw i32 %17, 1
  %22 = xor i32 %21, -1
  %23 = add i32 %11, %22
  %24 = icmp sgt i32 %4, %23
  br i1 %24, label %25, label %26

25:                                               ; preds = %20
  tail call void @ERR_new() #6
  tail call void @ERR_set_debug(ptr noundef nonnull @.str, i32 noundef 99, ptr noundef nonnull @__func__.ossl_rsa_padding_add_PKCS1_OAEP_mgf1_ex) #6
  tail call void (i32, i32, ptr, ...) @ERR_set_error(i32 noundef 4, i32 noundef 110, ptr noundef null) #6
  br label %77

26:                                               ; preds = %20
  %27 = or disjoint i32 %21, 1
  %.not = icmp sgt i32 %2, %27
  br i1 %.not, label %29, label %28

28:                                               ; preds = %26
  tail call void @ERR_new() #6
  tail call void @ERR_set_debug(ptr noundef nonnull @.str, i32 noundef 104, ptr noundef nonnull @__func__.ossl_rsa_padding_add_PKCS1_OAEP_mgf1_ex) #6
  tail call void (i32, i32, ptr, ...) @ERR_set_error(i32 noundef 4, i32 noundef 120, ptr noundef null) #6
  br label %77

29:                                               ; preds = %26
  store i8 0, ptr %1, align 1, !tbaa !3
  %30 = getelementptr inbounds nuw i8, ptr %1, i64 1
  %31 = zext nneg i32 %17 to i64
  %32 = getelementptr inbounds nuw i8, ptr %1, i64 %31
  %33 = getelementptr inbounds nuw i8, ptr %32, i64 1
  %34 = sext i32 %6 to i64
  %35 = tail call i32 @EVP_Digest(ptr noundef %5, i64 noundef %34, ptr noundef nonnull %33, ptr noundef null, ptr noundef %.068, ptr noundef null) #6
  %.not80 = icmp eq i32 %35, 0
  br i1 %.not80, label %.loopexit, label %36

36:                                               ; preds = %29
  %37 = getelementptr inbounds nuw i8, ptr %33, i64 %31
  %38 = sub nsw i32 %11, %4
  %39 = add i32 %38, %22
  %40 = sext i32 %39 to i64
  tail call void @llvm.memset.p0.i64(ptr nonnull align 1 %37, i8 0, i64 %40, i1 false)
  %41 = xor i32 %17, -1
  %42 = add i32 %38, %41
  %43 = sext i32 %42 to i64
  %44 = getelementptr inbounds i8, ptr %33, i64 %43
  store i8 1, ptr %44, align 1, !tbaa !3
  %45 = zext nneg i32 %11 to i64
  %46 = getelementptr inbounds nuw i8, ptr %33, i64 %45
  %47 = sext i32 %4 to i64
  %48 = sub nsw i64 0, %47
  %49 = getelementptr inbounds i8, ptr %46, i64 %48
  %50 = sub nsw i64 0, %31
  %51 = getelementptr inbounds i8, ptr %49, i64 %50
  %52 = zext i32 %4 to i64
  tail call void @llvm.memcpy.p0.p0.i64(ptr nonnull align 1 %51, ptr align 1 %3, i64 %52, i1 false)
  %53 = tail call i32 @RAND_bytes_ex(ptr noundef %0, ptr noundef nonnull %30, i64 noundef %31, i32 noundef 0) #6
  %54 = icmp slt i32 %53, 1
  br i1 %54, label %.loopexit, label %55

55:                                               ; preds = %36
  %56 = sub nsw i32 %11, %17
  %57 = sext i32 %56 to i64
  %58 = tail call noalias ptr @CRYPTO_malloc(i64 noundef %57, ptr noundef nonnull @.str, i32 noundef 126) #6
  %59 = icmp eq ptr %58, null
  br i1 %59, label %.loopexit, label %60

60:                                               ; preds = %55
  %61 = tail call i32 @PKCS1_MGF1(ptr noundef nonnull %58, i64 noundef %57, ptr noundef nonnull %30, i64 noundef %31, ptr noundef %spec.select)
  %62 = icmp slt i32 %61, 0
  br i1 %62, label %.loopexit, label %.preheader81

.preheader81:                                     ; preds = %60
  %63 = icmp sgt i32 %56, 0
  br i1 %63, label %.lr.ph.preheader, label %._crit_edge

.lr.ph.preheader:                                 ; preds = %.preheader81
  %wide.trip.count = zext nneg i32 %56 to i64
  br label %.lr.ph

.lr.ph:                                           ; preds = %.lr.ph.preheader, %.lr.ph
  %indvars.iv = phi i64 [ 0, %.lr.ph.preheader ], [ %indvars.iv.next, %.lr.ph ]
  %64 = getelementptr inbounds nuw i8, ptr %58, i64 %indvars.iv
  %65 = load i8, ptr %64, align 1, !tbaa !3
  %66 = getelementptr inbounds nuw i8, ptr %33, i64 %indvars.iv
  %67 = load i8, ptr %66, align 1, !tbaa !3
  %68 = xor i8 %67, %65
  store i8 %68, ptr %66, align 1, !tbaa !3
  %indvars.iv.next = add nuw nsw i64 %indvars.iv, 1
  %exitcond.not = icmp eq i64 %indvars.iv.next, %wide.trip.count
  br i1 %exitcond.not, label %._crit_edge, label %.lr.ph, !llvm.loop !6

._crit_edge:                                      ; preds = %.lr.ph, %.preheader81
  %69 = call i32 @PKCS1_MGF1(ptr noundef nonnull %10, i64 noundef %31, ptr noundef nonnull %33, i64 noundef %57, ptr noundef %spec.select)
  %70 = icmp slt i32 %69, 0
  br i1 %70, label %.loopexit, label %.lr.ph84.preheader

.lr.ph84.preheader:                               ; preds = %._crit_edge
  %smax = call i32 @llvm.smax.i32(i32 %17, i32 1)
  %wide.trip.count89 = zext nneg i32 %smax to i64
  br label %.lr.ph84

.lr.ph84:                                         ; preds = %.lr.ph84.preheader, %.lr.ph84
  %indvars.iv86 = phi i64 [ 0, %.lr.ph84.preheader ], [ %indvars.iv.next87, %.lr.ph84 ]
  %71 = getelementptr inbounds nuw [64 x i8], ptr %10, i64 0, i64 %indvars.iv86
  %72 = load i8, ptr %71, align 1, !tbaa !3
  %73 = getelementptr inbounds nuw i8, ptr %30, i64 %indvars.iv86
  %74 = load i8, ptr %73, align 1, !tbaa !3
  %75 = xor i8 %74, %72
  store i8 %75, ptr %73, align 1, !tbaa !3
  %indvars.iv.next87 = add nuw nsw i64 %indvars.iv86, 1
  %exitcond90.not = icmp eq i64 %indvars.iv.next87, %wide.trip.count89
  br i1 %exitcond90.not, label %.loopexit, label %.lr.ph84, !llvm.loop !8

.loopexit:                                        ; preds = %.lr.ph84, %._crit_edge, %60, %55, %36, %29
  %.070 = phi i32 [ 0, %36 ], [ 0, %55 ], [ 0, %60 ], [ 0, %._crit_edge ], [ 0, %29 ], [ 1, %.lr.ph84 ]
  %.067 = phi ptr [ null, %36 ], [ null, %55 ], [ %58, %60 ], [ %58, %._crit_edge ], [ null, %29 ], [ %58, %.lr.ph84 ]
  %.0 = phi i32 [ 0, %36 ], [ %56, %55 ], [ %56, %60 ], [ %56, %._crit_edge ], [ 0, %29 ], [ %56, %.lr.ph84 ]
  call void @OPENSSL_cleanse(ptr noundef nonnull %10, i64 noundef 64) #6
  %76 = sext i32 %.0 to i64
  call void @CRYPTO_clear_free(ptr noundef %.067, i64 noundef %76, ptr noundef nonnull @.str, i32 noundef 147) #6
  br label %77

77:                                               ; preds = %.loopexit, %28, %25, %19
  %.066 = phi i32 [ 0, %19 ], [ 0, %25 ], [ 0, %28 ], [ %.070, %.loopexit ]
  call void @llvm.lifetime.end.p0(i64 64, ptr nonnull %10) #6
  ret i32 %.066
}